target datalayout = "e-m:e-p270:32:32-p271:32:32-p272:64:64-i64:64-i128:128-f80:128-n8:16:32:64-S128"
target triple = "x86_64-pc-linux-gnu"

%struct.listNode = type { ptr, ptr, ptr }
%struct.client = type { i64, i64, ptr, i8, i8, i8, i8, i32, ptr, ptr, ptr, ptr, ptr, i64, i64, i32, ptr, i32, i32, ptr, i64, ptr, ptr, ptr, ptr, ptr, i32, i32, i64, ptr, i64, ptr, i64, i64, i64, i32, ptr, i64, i64, i32, i32, i32, i32, i64, i64, ptr, i64, i64, i64, i64, i64, i64, i64, i64, [41 x i8], i32, ptr, i32, i32, i64, %struct.multiState, %struct.blockingState, i64, ptr, ptr, ptr, ptr, ptr, ptr, ptr, ptr, ptr, ptr, ptr, ptr, ptr, ptr, i64, ptr, i64, i32, ptr, ptr, ptr, i64, %struct.listNode, i64, i64, i32, i64, ptr }
%struct.multiState = type { ptr, i32, i32, i32, i64, i32 }
%struct.blockingState = type { i32, i64, i32, ptr, i32, i32, i64, ptr, ptr, i64 }

; Function Attrs: nounwind uwtable
define dso_local ptr @createAOFClient() #0 {
  %1 = alloca ptr, align 8
  call void @llvm.lifetime.start.p0(i64 8, ptr %1) #12
  %2 = call ptr @createClient(ptr noundef null)
  store ptr %2, ptr %1, align 8, !tbaa !140
  %3 = load ptr, ptr %1, align 8, !tbaa !140
  %4 = getelementptr inbounds nuw %struct.client, ptr %3, i32 0, i32 0
  store i64 -1, ptr %4, align 8, !tbaa !141
  %5 = load ptr, ptr %1, align 8, !tbaa !140
  %6 = getelementptr inbounds nuw %struct.client, ptr %5, i32 0, i32 1
  store i64 2199023255552, ptr %6, align 8, !tbaa !148
  %7 = load ptr, ptr %1, align 8, !tbaa !140
  %8 = getelementptr inbounds nuw %struct.client, ptr %7, i32 0, i32 40
  store i32 6, ptr %8, align 4, !tbaa !149
  %9 = load ptr, ptr %1, align 8, !tbaa !140
  call void @llvm.lifetime.end.p0(i64 8, ptr %1) #12
  ret ptr %9
}