; Function Attrs: nounwind uwtable
define dso_local noundef ptr @createAOFClient() local_unnamed_addr #0 {
  %1 = tail call ptr @createClient(ptr noundef null) #20
  store i64 -1, ptr %1, align 8, !tbaa !124
  %2 = getelementptr inbounds nuw i8, ptr %1, i64 8
  store i64 2199023255552, ptr %2, align 8, !tbaa !132
  %3 = getelementptr inbounds nuw i8, ptr %1, i64 268
  store i32 6, ptr %3, align 4, !tbaa !133
  ret ptr %1
}